target datalayout = "e-m:e-p270:32:32-p271:32:32-p272:64:64-i64:64-i128:128-f80:128-n8:16:32:64-S128"
target triple = "x86_64-pc-linux-gnu"

%struct.aom_dec_model_op_parameters = type { i32, i64, i64, i32, i32, i32, i32, i32 }

; Function Attrs: nounwind uwtable
define hidden void @av1_read_op_parameters_info(ptr noundef %0, i32 noundef %1, ptr noundef %2) #0 {
  %4 = alloca ptr, align 8
  %5 = alloca i32, align 4
  %6 = alloca ptr, align 8
  store ptr %0, ptr %4, align 8
  store i32 %1, ptr %5, align 4
  store ptr %2, ptr %6, align 8
  %7 = load ptr, ptr %6, align 8
  %8 = load i32, ptr %5, align 4
  %9 = call i32 @aom_rb_read_unsigned_literal(ptr noundef %7, i32 noundef %8)
  %10 = load ptr, ptr %4, align 8
  %11 = getelementptr inbounds nuw %struct.aom_dec_model_op_parameters, ptr %10, i32 0, i32 3
  store i32 %9, ptr %11, align 8
  %12 = load ptr, ptr %6, align 8
  %13 = load i32, ptr %5, align 4
  %14 = call i32 @aom_rb_read_unsigned_literal(ptr noundef %12, i32 noundef %13)
  %15 = load ptr, ptr %4, align 8
  %16 = getelementptr inbounds nuw %struct.aom_dec_model_op_parameters, ptr %15, i32 0, i32 4
  store i32 %14, ptr %16, align 4
  %17 = load ptr, ptr %6, align 8
  %18 = call i32 @aom_rb_read_bit(ptr noundef %17)
  %19 = load ptr, ptr %4, align 8
  %20 = getelementptr inbounds nuw %struct.aom_dec_model_op_parameters, ptr %19, i32 0, i32 5
  store i32 %18, ptr %20, align 8
  ret void
}