; Function Attrs: nounwind uwtable
define hidden void @av1_read_op_parameters_info(ptr noundef writeonly captures(none) initializes((24, 36)) %0, i32 noundef %1, ptr noundef %2) local_unnamed_addr #0 {
  %4 = tail call i32 @aom_rb_read_unsigned_literal(ptr noundef %2, i32 noundef %1) #16
  %5 = getelementptr inbounds nuw i8, ptr %0, i64 24
  store i32 %4, ptr %5, align 8
  %6 = tail call i32 @aom_rb_read_unsigned_literal(ptr noundef %2, i32 noundef %1) #16
  %7 = getelementptr inbounds nuw i8, ptr %0, i64 28
  store i32 %6, ptr %7, align 4
  %8 = tail call i32 @aom_rb_read_bit(ptr noundef %2) #16
  %9 = getelementptr inbounds nuw i8, ptr %0, i64 32
  store i32 %8, ptr %9, align 8
  ret void
}